; Function Attrs: mustprogress uwtable
define dso_local noundef zeroext i1 @_ZN4Luau13Instantiation7isDirtyEPKNS_4TypeE(ptr noundef nonnull readonly align 8 captures(none) dereferenceable(1040) %0, ptr noundef %1) unnamed_addr #2 align 2 {
  %3 = getelementptr inbounds nuw i8, ptr %0, i64 144
  %4 = load ptr, ptr %3, align 8, !tbaa !69
  %5 = tail call noundef ptr @_ZNK4Luau6TxnLog7pendingEPKNS_4TypeE(ptr noundef nonnull align 8 dereferenceable(128) %4, ptr noundef %1)
  %.not.i = icmp eq ptr %5, null
  br i1 %.not.i, label %8, label %6

6:                                                ; preds = %2
  %7 = tail call noundef ptr @_ZN4Luau9asMutableEPKNS_4TypeE(ptr noundef nonnull %5)
  %.not.i.i.i.i = icmp eq ptr %7, null
  br i1 %.not.i.i.i.i, label %_ZNK4Luau6TxnLog10getMutableINS_12FunctionTypeEPKNS_4TypeEEEPT_T0_.exit.thread, label %_ZN4Luau10getMutableINS_12FunctionTypeEEEPT_PNS_11PendingTypeE.exit.sink.split.i

8:                                                ; preds = %2
  %9 = tail call noundef ptr @_ZN4Luau9asMutableEPKNS_4TypeE(ptr noundef %1)
  %.not.i.i.i = icmp eq ptr %9, null
  br i1 %.not.i.i.i, label %_ZNK4Luau6TxnLog10getMutableINS_12FunctionTypeEPKNS_4TypeEEEPT_T0_.exit.thread, label %_ZN4Luau10getMutableINS_12FunctionTypeEEEPT_PNS_11PendingTypeE.exit.sink.split.i

_ZN4Luau10getMutableINS_12FunctionTypeEEEPT_PNS_11PendingTypeE.exit.sink.split.i: ; preds = %8, %6
  %.sink.i = phi ptr [ %7, %6 ], [ %9, %8 ]
  %10 = load i32, ptr %.sink.i, align 8, !tbaa !70
  %11 = icmp eq i32 %10, 8
  br i1 %11, label %_ZNK4Luau6TxnLog10getMutableINS_12FunctionTypeEPKNS_4TypeEEEPT_T0_.exit, label %_ZNK4Luau6TxnLog10getMutableINS_12FunctionTypeEPKNS_4TypeEEEPT_T0_.exit.thread

_ZNK4Luau6TxnLog10getMutableINS_12FunctionTypeEPKNS_4TypeEEEPT_T0_.exit: ; preds = %_ZN4Luau10getMutableINS_12FunctionTypeEEEPT_PNS_11PendingTypeE.exit.sink.split.i
  %12 = getelementptr inbounds nuw i8, ptr %.sink.i, i64 257
  %13 = load i8, ptr %12, align 1, !tbaa !72, !range !95, !noundef !96
  %14 = trunc nuw i8 %13 to i1
  %not. = xor i1 %14, true
  br label %_ZNK4Luau6TxnLog10getMutableINS_12FunctionTypeEPKNS_4TypeEEEPT_T0_.exit.thread

_ZNK4Luau6TxnLog10getMutableINS_12FunctionTypeEPKNS_4TypeEEEPT_T0_.exit.thread: ; preds = %_ZN4Luau10getMutableINS_12FunctionTypeEEEPT_PNS_11PendingTypeE.exit.sink.split.i, %8, %6, %_ZNK4Luau6TxnLog10getMutableINS_12FunctionTypeEPKNS_4TypeEEEPT_T0_.exit
  %.0 = phi i1 [ %not., %_ZNK4Luau6TxnLog10getMutableINS_12FunctionTypeEPKNS_4TypeEEEPT_T0_.exit ], [ false, %6 ], [ false, %8 ], [ false, %_ZN4Luau10getMutableINS_12FunctionTypeEEEPT_PNS_11PendingTypeE.exit.sink.split.i ]
  ret i1 %.0
}